; Function Attrs: null_pointer_is_valid sspstrong uwtable
define internal fastcc range(i32 0, 65544) i32 @dissect_uftp_rsablob(ptr noundef %0, ptr noundef %1, ptr noundef %2, i32 noundef %3) unnamed_addr #0 {
  %5 = tail call i32 @tvb_reported_length(ptr noundef %0)
  %6 = icmp ult i32 %5, 8
  br i1 %6, label %7, label %10

7:                                                ; preds = %4
  %8 = tail call i32 @tvb_reported_length(ptr noundef %0)
  %9 = tail call ptr (ptr, ptr, ptr, ptr, i32, i32, ptr, ...) @proto_tree_add_expert_format(ptr noundef %2, ptr noundef %1, ptr noundef nonnull @ei_uftp_length_invalid, ptr noundef %0, i32 noundef 0, i32 noundef -1, ptr noundef nonnull @.str.416, i32 noundef %8)
  br label %33

10:                                               ; preds = %4
  %11 = tail call zeroext i16 @tvb_get_ntohs(ptr noundef %0, i32 noundef 2)
  %12 = zext i16 %11 to i32
  %13 = tail call i32 @tvb_reported_length(ptr noundef %0)
  %14 = add nuw nsw i32 %12, 8
  %15 = icmp slt i32 %13, %14
  br i1 %15, label %16, label %19

16:                                               ; preds = %10
  %17 = tail call i32 @tvb_reported_length(ptr noundef %0)
  %18 = tail call ptr (ptr, ptr, ptr, ptr, i32, i32, ptr, ...) @proto_tree_add_expert_format(ptr noundef %2, ptr noundef %1, ptr noundef nonnull @ei_uftp_length_invalid, ptr noundef %0, i32 noundef 0, i32 noundef -1, ptr noundef nonnull @.str.420, i32 noundef %17)
  br label %33

19:                                               ; preds = %10
  %20 = tail call ptr @proto_tree_add_item(ptr noundef %2, i32 noundef %3, ptr noundef %0, i32 noundef 0, i32 noundef %14, i32 noundef 0)
  %21 = load i32, ptr @ett_uftp_rsablob, align 4
  %22 = tail call ptr @proto_item_add_subtree(ptr noundef %20, i32 noundef %21)
  %23 = load i32, ptr @hf_uftp_rsablob_blobtype, align 4
  %24 = tail call ptr @proto_tree_add_item(ptr noundef %22, i32 noundef %23, ptr noundef %0, i32 noundef 0, i32 noundef 1, i32 noundef 0)
  %25 = load i32, ptr @hf_uftp_rsablob_reserved, align 4
  %26 = tail call ptr @proto_tree_add_item(ptr noundef %22, i32 noundef %25, ptr noundef %0, i32 noundef 1, i32 noundef 1, i32 noundef 0)
  %27 = load i32, ptr @hf_uftp_rsablob_modlen, align 4
  %28 = tail call ptr @proto_tree_add_item(ptr noundef %22, i32 noundef %27, ptr noundef %0, i32 noundef 2, i32 noundef 2, i32 noundef 0)
  %29 = load i32, ptr @hf_uftp_rsablob_exponent, align 4
  %30 = tail call ptr @proto_tree_add_item(ptr noundef %22, i32 noundef %29, ptr noundef %0, i32 noundef 4, i32 noundef 4, i32 noundef 0)
  %31 = load i32, ptr @hf_uftp_rsablob_modulus, align 4
  %32 = tail call ptr @proto_tree_add_item(ptr noundef %22, i32 noundef %31, ptr noundef %0, i32 noundef 8, i32 noundef %12, i32 noundef 0)
  br label %33

33:                                               ; preds = %19, %16, %7
  %.0 = phi i32 [ 0, %7 ], [ 0, %16 ], [ %14, %19 ]
  ret i32 %.0
}